; Function Attrs: mustprogress uwtable
define hidden noundef zeroext i1 @_ZN4cvc58internal6theory11quantifiers16SygusRepairConst12isRepairableENS0_12NodeTemplateILb1EEE(ptr noundef %0) local_unnamed_addr #3 align 2 personality ptr @__gxx_personality_v0 {
  %2 = alloca %"class.cvc5::internal::TypeNode", align 8
  %3 = alloca %"class.cvc5::internal::NodeTemplate", align 8
  %4 = alloca %"class.cvc5::internal::NodeTemplate", align 8
  %5 = load ptr, ptr %0, align 8, !tbaa !28
  %6 = getelementptr inbounds nuw i8, ptr %5, i64 8
  %7 = load i64, ptr %6, align 8
  %8 = and i64 %7, 1023
  %.not = icmp eq i64 %8, 224
  br i1 %.not, label %9, label %89

9:                                                ; preds = %1
  call void @llvm.lifetime.start.p0(i64 8, ptr nonnull %2) #21
  call void @_ZNK4cvc58internal12NodeTemplateILb1EE7getTypeEb(ptr dead_on_unwind nonnull writable sret(%"class.cvc5::internal::TypeNode") align 8 %2, ptr noundef nonnull align 8 dereferenceable(8) %0, i1 noundef zeroext false)
  %10 = invoke noundef nonnull align 8 dereferenceable(448) ptr @_ZNK4cvc58internal8TypeNode8getDTypeEv(ptr noundef nonnull align 8 dereferenceable(8) %2)
          to label %11 unwind label %14

11:                                               ; preds = %9
  %12 = invoke noundef zeroext i1 @_ZNK4cvc58internal5DType7isSygusEv(ptr noundef nonnull align 8 dereferenceable(448) %10)
          to label %13 unwind label %14

13:                                               ; preds = %11
  br i1 %12, label %16, label %74

14:                                               ; preds = %11, %9
  %15 = landingpad { ptr, i32 }
          cleanup
  br label %88

16:                                               ; preds = %13
  call void @llvm.lifetime.start.p0(i64 8, ptr nonnull %3) #21
  invoke void @_ZNK4cvc58internal12NodeTemplateILb1EE11getOperatorEv(ptr dead_on_unwind nonnull writable sret(%"class.cvc5::internal::NodeTemplate") align 8 %3, ptr noundef nonnull align 8 dereferenceable(8) %0)
          to label %17 unwind label %66

17:                                               ; preds = %16
  %18 = load ptr, ptr %3, align 8, !tbaa !28
  store ptr %18, ptr %4, align 8, !tbaa !28
  %19 = load i64, ptr %18, align 8
  %20 = lshr i64 %19, 40
  %21 = trunc nuw nsw i64 %20 to i32
  %22 = and i32 %21, 1048575
  %23 = icmp samesign ult i32 %22, 1048574
  br i1 %23, label %24, label %29, !prof !34

24:                                               ; preds = %17
  %25 = add i64 %19, 1099511627776
  %26 = and i64 %25, 1152920405095219200
  %27 = and i64 %19, -1152920405095219201
  %28 = or disjoint i64 %26, %27
  store i64 %28, ptr %18, align 8
  br label %_ZN4cvc58internal12NodeTemplateILb1EEC2ERKS2_.exit

29:                                               ; preds = %17
  %30 = icmp eq i32 %22, 1048574
  br i1 %30, label %31, label %_ZN4cvc58internal12NodeTemplateILb1EEC2ERKS2_.exit, !prof !33

31:                                               ; preds = %29
  %32 = or i64 %19, 1152920405095219200
  store i64 %32, ptr %18, align 8
  invoke void @_ZN4cvc58internal4expr9NodeValue20markRefCountMaxedOutEv(ptr noundef nonnull align 8 dereferenceable(24) %18)
          to label %_ZN4cvc58internal12NodeTemplateILb1EEC2ERKS2_.exit unwind label %68

_ZN4cvc58internal12NodeTemplateILb1EEC2ERKS2_.exit: ; preds = %29, %24, %31
  %33 = invoke noundef i64 @_ZN4cvc58internal6theory9datatypes5utils7indexOfENS0_12NodeTemplateILb1EEE(ptr noundef nonnull %4)
          to label %34 unwind label %70

34:                                               ; preds = %_ZN4cvc58internal12NodeTemplateILb1EEC2ERKS2_.exit
  %35 = load ptr, ptr %4, align 8, !tbaa !28
  %36 = load i64, ptr %35, align 8
  %37 = and i64 %36, 1152920405095219200
  %.not.i.i = icmp eq i64 %37, 1152920405095219200
  br i1 %.not.i.i, label %_ZN4cvc58internal12NodeTemplateILb1EED2Ev.exit, label %38, !prof !33

38:                                               ; preds = %34
  %39 = add i64 %36, 1152920405095219200
  %40 = and i64 %39, 1152920405095219200
  %41 = and i64 %36, -1152920405095219201
  %42 = or disjoint i64 %40, %41
  store i64 %42, ptr %35, align 8
  %43 = icmp eq i64 %40, 0
  br i1 %43, label %44, label %_ZN4cvc58internal12NodeTemplateILb1EED2Ev.exit, !prof !33

44:                                               ; preds = %38
  invoke void @_ZN4cvc58internal4expr9NodeValue15markForDeletionEv(ptr noundef nonnull align 8 dereferenceable(24) %35)
          to label %_ZN4cvc58internal12NodeTemplateILb1EED2Ev.exit unwind label %45

45:                                               ; preds = %44
  %46 = landingpad { ptr, i32 }
          catch ptr null
  %47 = extractvalue { ptr, i32 } %46, 0
  call void @__clang_call_terminate(ptr %47) #23
  unreachable

_ZN4cvc58internal12NodeTemplateILb1EED2Ev.exit:   ; preds = %34, %38, %44
  %48 = and i64 %33, 4294967295
  %49 = invoke noundef nonnull align 8 dereferenceable(264) ptr @_ZNK4cvc58internal5DTypeixEm(ptr noundef nonnull align 8 dereferenceable(448) %10, i64 noundef %48)
          to label %50 unwind label %68

50:                                               ; preds = %_ZN4cvc58internal12NodeTemplateILb1EED2Ev.exit
  %51 = invoke noundef zeroext i1 @_ZNK4cvc58internal16DTypeConstructor18isSygusAnyConstantEv(ptr noundef nonnull align 8 dereferenceable(264) %49)
          to label %52 unwind label %68

52:                                               ; preds = %50
  %53 = load ptr, ptr %3, align 8, !tbaa !28
  %54 = load i64, ptr %53, align 8
  %55 = and i64 %54, 1152920405095219200
  %.not.i.i13 = icmp eq i64 %55, 1152920405095219200
  br i1 %.not.i.i13, label %_ZN4cvc58internal12NodeTemplateILb1EED2Ev.exit14, label %56, !prof !33

56:                                               ; preds = %52
  %57 = add i64 %54, 1152920405095219200
  %58 = and i64 %57, 1152920405095219200
  %59 = and i64 %54, -1152920405095219201
  %60 = or disjoint i64 %58, %59
  store i64 %60, ptr %53, align 8
  %61 = icmp eq i64 %58, 0
  br i1 %61, label %62, label %_ZN4cvc58internal12NodeTemplateILb1EED2Ev.exit14, !prof !33

62:                                               ; preds = %56
  invoke void @_ZN4cvc58internal4expr9NodeValue15markForDeletionEv(ptr noundef nonnull align 8 dereferenceable(24) %53)
          to label %_ZN4cvc58internal12NodeTemplateILb1EED2Ev.exit14 unwind label %63

63:                                               ; preds = %62
  %64 = landingpad { ptr, i32 }
          catch ptr null
  %65 = extractvalue { ptr, i32 } %64, 0
  call void @__clang_call_terminate(ptr %65) #23
  unreachable

_ZN4cvc58internal12NodeTemplateILb1EED2Ev.exit14: ; preds = %52, %56, %62
  call void @llvm.lifetime.end.p0(i64 8, ptr nonnull %3) #21
  br label %74

66:                                               ; preds = %16
  %67 = landingpad { ptr, i32 }
          cleanup
  br label %73

68:                                               ; preds = %31, %50, %_ZN4cvc58internal12NodeTemplateILb1EED2Ev.exit
  %69 = landingpad { ptr, i32 }
          cleanup
  br label %72

70:                                               ; preds = %_ZN4cvc58internal12NodeTemplateILb1EEC2ERKS2_.exit
  %71 = landingpad { ptr, i32 }
          cleanup
  call void @_ZN4cvc58internal12NodeTemplateILb1EED2Ev(ptr noundef nonnull align 8 dereferenceable(8) %4) #21
  br label %72

72:                                               ; preds = %70, %68
  %.pn = phi { ptr, i32 } [ %69, %68 ], [ %71, %70 ]
  call void @_ZN4cvc58internal12NodeTemplateILb1EED2Ev(ptr noundef nonnull align 8 dereferenceable(8) %3) #21
  br label %73

73:                                               ; preds = %72, %66
  %.pn.pn = phi { ptr, i32 } [ %.pn, %72 ], [ %67, %66 ]
  call void @llvm.lifetime.end.p0(i64 8, ptr nonnull %3) #21
  br label %88

74:                                               ; preds = %13, %_ZN4cvc58internal12NodeTemplateILb1EED2Ev.exit14
  %.1 = phi i1 [ %51, %_ZN4cvc58internal12NodeTemplateILb1EED2Ev.exit14 ], [ false, %13 ]
  %75 = load ptr, ptr %2, align 8, !tbaa !46
  %76 = load i64, ptr %75, align 8
  %77 = and i64 %76, 1152920405095219200
  %.not.i.i15 = icmp eq i64 %77, 1152920405095219200
  br i1 %.not.i.i15, label %_ZN4cvc58internal8TypeNodeD2Ev.exit, label %78, !prof !33

78:                                               ; preds = %74
  %79 = add i64 %76, 1152920405095219200
  %80 = and i64 %79, 1152920405095219200
  %81 = and i64 %76, -1152920405095219201
  %82 = or disjoint i64 %80, %81
  store i64 %82, ptr %75, align 8
  %83 = icmp eq i64 %80, 0
  br i1 %83, label %84, label %_ZN4cvc58internal8TypeNodeD2Ev.exit, !prof !33

84:                                               ; preds = %78
  invoke void @_ZN4cvc58internal4expr9NodeValue15markForDeletionEv(ptr noundef nonnull align 8 dereferenceable(24) %75)
          to label %_ZN4cvc58internal8TypeNodeD2Ev.exit unwind label %85

85:                                               ; preds = %84
  %86 = landingpad { ptr, i32 }
          catch ptr null
  %87 = extractvalue { ptr, i32 } %86, 0
  call void @__clang_call_terminate(ptr %87) #23
  unreachable

_ZN4cvc58internal8TypeNodeD2Ev.exit:              ; preds = %74, %78, %84
  call void @llvm.lifetime.end.p0(i64 8, ptr nonnull %2) #21
  br label %89

88:                                               ; preds = %73, %14
  %.pn.pn.pn = phi { ptr, i32 } [ %.pn.pn, %73 ], [ %15, %14 ]
  call void @_ZN4cvc58internal8TypeNodeD2Ev(ptr noundef nonnull align 8 dereferenceable(8) %2) #21
  call void @llvm.lifetime.end.p0(i64 8, ptr nonnull %2) #21
  resume { ptr, i32 } %.pn.pn.pn

89:                                               ; preds = %1, %_ZN4cvc58internal8TypeNodeD2Ev.exit
  %.0 = phi i1 [ %.1, %_ZN4cvc58internal8TypeNodeD2Ev.exit ], [ false, %1 ]
  ret i1 %.0
}